target datalayout = "e-m:e-p270:32:32-p271:32:32-p272:64:64-i64:64-i128:128-f80:128-n8:16:32:64-S128"
target triple = "x86_64-pc-linux-gnu"

%struct._zval_struct = type { %union._zend_value, %union.anon, %union.anon.2 }
%union._zend_value = type { i64 }
%union.anon = type { i32 }
%union.anon.2 = type { i32 }
%struct.anon.0 = type { i8, i8, %union.anon.1 }
%union.anon.1 = type { i16 }

@zend_empty_string = external global ptr, align 8
@.str.5 = private unnamed_addr constant [108 x i8] c"%s(): If argument #1 ($separator) is of type string, argument #2 ($array) must be of type array, null given\00", align 1

; Function Attrs: alwaysinline nounwind uwtable
define internal zeroext i8 @zval_get_type(ptr noundef %0) #7 {
  %2 = alloca ptr, align 8
  store ptr %0, ptr %2, align 8, !tbaa !15
  %3 = load ptr, ptr %2, align 8, !tbaa !15
  %4 = getelementptr inbounds nuw %struct._zval_struct, ptr %3, i32 0, i32 1
  %5 = getelementptr inbounds nuw %struct.anon.0, ptr %4, i32 0, i32 0
  %6 = load i8, ptr %5, align 8, !tbaa !12
  ret i8 %6
}

; Function Attrs: alwaysinline nounwind uwtable
define internal zeroext i1 @zend_parse_arg_array(ptr noundef %0, ptr noundef %1, i1 noundef zeroext %2, i1 noundef zeroext %3) #7 {
  %5 = alloca i1, align 1
  %6 = alloca ptr, align 8
  %7 = alloca ptr, align 8
  %8 = alloca i8, align 1
  %9 = alloca i8, align 1
  store ptr %0, ptr %6, align 8, !tbaa !15
  store ptr %1, ptr %7, align 8, !tbaa !89
  %10 = zext i1 %2 to i8
  store i8 %10, ptr %8, align 1, !tbaa !19
  %11 = zext i1 %3 to i8
  store i8 %11, ptr %9, align 1, !tbaa !19
  %12 = load ptr, ptr %6, align 8, !tbaa !15
  %13 = call zeroext i8 @zval_get_type(ptr noundef %12)
  %14 = zext i8 %13 to i32
  %15 = icmp eq i32 %14, 7
  %16 = xor i1 %15, true
  %17 = xor i1 %16, true
  %18 = zext i1 %17 to i32
  %19 = sext i32 %18 to i64
  %20 = call i64 @llvm.expect.i64(i64 %19, i64 1)
  %21 = icmp ne i64 %20, 0
  br i1 %21, label %36, label %22

22:                                               ; preds = %4
  %23 = load i8, ptr %9, align 1, !tbaa !19, !range !21, !noundef !22
  %24 = trunc i8 %23 to i1
  br i1 %24, label %25, label %39

25:                                               ; preds = %22
  %26 = load ptr, ptr %6, align 8, !tbaa !15
  %27 = call zeroext i8 @zval_get_type(ptr noundef %26)
  %28 = zext i8 %27 to i32
  %29 = icmp eq i32 %28, 8
  %30 = xor i1 %29, true
  %31 = xor i1 %30, true
  %32 = zext i1 %31 to i32
  %33 = sext i32 %32 to i64
  %34 = call i64 @llvm.expect.i64(i64 %33, i64 1)
  %35 = icmp ne i64 %34, 0
  br i1 %35, label %36, label %39

36:                                               ; preds = %25, %4
  %37 = load ptr, ptr %6, align 8, !tbaa !15
  %38 = load ptr, ptr %7, align 8, !tbaa !89
  store ptr %37, ptr %38, align 8, !tbaa !15
  br label %57

39:                                               ; preds = %25, %22
  %40 = load i8, ptr %8, align 1, !tbaa !19, !range !21, !noundef !22
  %41 = trunc i8 %40 to i1
  br i1 %41, label %42, label %55

42:                                               ; preds = %39
  %43 = load ptr, ptr %6, align 8, !tbaa !15
  %44 = call zeroext i8 @zval_get_type(ptr noundef %43)
  %45 = zext i8 %44 to i32
  %46 = icmp eq i32 %45, 1
  %47 = xor i1 %46, true
  %48 = xor i1 %47, true
  %49 = zext i1 %48 to i32
  %50 = sext i32 %49 to i64
  %51 = call i64 @llvm.expect.i64(i64 %50, i64 1)
  %52 = icmp ne i64 %51, 0
  br i1 %52, label %53, label %55

53:                                               ; preds = %42
  %54 = load ptr, ptr %7, align 8, !tbaa !89
  store ptr null, ptr %54, align 8, !tbaa !15
  br label %56

55:                                               ; preds = %42, %39
  store i1 false, ptr %5, align 1
  br label %58

56:                                               ; preds = %53
  br label %57

57:                                               ; preds = %56, %36
  store i1 true, ptr %5, align 1
  br label %58

58:                                               ; preds = %57, %55
  %59 = load i1, ptr %5, align 1
  ret i1 %59
}

; Function Attrs: nounwind uwtable
define hidden void @zflf_implode_1(ptr noundef %0, ptr noundef %1) #0 {
  %3 = alloca ptr, align 8
  %4 = alloca ptr, align 8
  %5 = alloca ptr, align 8
  %6 = alloca ptr, align 8
  store ptr %0, ptr %3, align 8, !tbaa !15
  store ptr %1, ptr %4, align 8, !tbaa !15
  call void @llvm.lifetime.start.p0(i64 8, ptr %5) #22
  %7 = load ptr, ptr %4, align 8, !tbaa !15
  %8 = call zeroext i1 @zend_parse_arg_array(ptr noundef %7, ptr noundef %5, i1 noundef zeroext false, i1 noundef zeroext false)
  br i1 %8, label %11, label %9

9:                                                ; preds = %2
  %10 = call ptr @get_active_function_name()
  call void (ptr, ...) @zend_type_error(ptr noundef @.str.5, ptr noundef %10)
  br label %18

11:                                               ; preds = %2
  %12 = load ptr, ptr @zend_empty_string, align 8, !tbaa !23
  store ptr %12, ptr %6, align 8, !tbaa !23
  %13 = load ptr, ptr %6, align 8, !tbaa !23
  %14 = load ptr, ptr %5, align 8, !tbaa !15
  %15 = getelementptr inbounds nuw %struct._zval_struct, ptr %14, i32 0, i32 0
  %16 = load ptr, ptr %15, align 8, !tbaa !12
  %17 = load ptr, ptr %3, align 8, !tbaa !15
  call void @php_implode(ptr noundef %13, ptr noundef %16, ptr noundef %17)
  br label %18

18:                                               ; preds = %11, %9
  call void @llvm.lifetime.end.p0(i64 8, ptr %5) #22
  ret void
}