; Function Attrs: nounwind uwtable
define hidden void @zflf_implode_1(ptr noundef writeonly captures(none) %0, ptr noundef readonly captures(none) %1) local_unnamed_addr #0 {
  %3 = getelementptr inbounds nuw i8, ptr %1, i64 8
  %4 = load i8, ptr %3, align 8, !tbaa !10
  %5 = icmp eq i8 %4, 7
  br i1 %5, label %7, label %zend_parse_arg_array.exit, !prof !12

zend_parse_arg_array.exit:                        ; preds = %2
  %6 = tail call ptr @get_active_function_name() #28
  tail call void (ptr, ...) @zend_type_error(ptr noundef nonnull @.str.5, ptr noundef %6) #28
  br label %10

7:                                                ; preds = %2
  %8 = load ptr, ptr @zend_empty_string, align 8, !tbaa !13
  %9 = load ptr, ptr %1, align 8, !tbaa !10
  tail call void @php_implode(ptr noundef %8, ptr noundef %9, ptr noundef %0)
  br label %10

10:                                               ; preds = %7, %zend_parse_arg_array.exit
  ret void
}